target datalayout = "e-m:e-p270:32:32-p271:32:32-p272:64:64-i64:64-i128:128-f80:128-n8:16:32:64-S128"
target triple = "x86_64-pc-linux-gnu"

@.str.157 = private unnamed_addr constant [31 x i8] c"\\%s: missing required argument\00", align 1
@.str.268 = private unnamed_addr constant [52 x i8] c"\\%s: environment variable name must not contain \22=\22\00", align 1

; Function Attrs: nounwind uwtable
define internal void @ignore_slash_options(ptr noundef %0) #0 {
  %2 = alloca ptr, align 8
  %3 = alloca ptr, align 8
  store ptr %0, ptr %2, align 8
  call void @llvm.lifetime.start.p0(i64 8, ptr %3) #10
  br label %4

4:                                                ; preds = %8, %1
  %5 = load ptr, ptr %2, align 8
  %6 = call ptr @psql_scan_slash_option(ptr noundef %5, i32 noundef 0, ptr noundef null, i1 noundef zeroext false)
  store ptr %6, ptr %3, align 8
  %7 = icmp ne ptr %6, null
  br i1 %7, label %8, label %10

8:                                                ; preds = %4
  %9 = load ptr, ptr %3, align 8
  call void @free(ptr noundef %9) #10
  br label %4, !llvm.loop !18

10:                                               ; preds = %4
  call void @llvm.lifetime.end.p0(i64 8, ptr %3) #10
  ret void
}

; Function Attrs: nounwind uwtable
define internal i32 @exec_command_setenv(ptr noundef %0, i1 noundef zeroext %1, ptr noundef %2) #0 {
  %4 = alloca ptr, align 8
  %5 = alloca i8, align 1
  %6 = alloca ptr, align 8
  %7 = alloca i8, align 1
  %8 = alloca ptr, align 8
  %9 = alloca ptr, align 8
  store ptr %0, ptr %4, align 8
  %10 = zext i1 %1 to i8
  store i8 %10, ptr %5, align 1
  store ptr %2, ptr %6, align 8
  call void @llvm.lifetime.start.p0(i64 1, ptr %7) #10
  store i8 1, ptr %7, align 1
  %11 = load i8, ptr %5, align 1, !range !4, !noundef !5
  %12 = trunc i8 %11 to i1
  br i1 %12, label %13, label %43

13:                                               ; preds = %3
  call void @llvm.lifetime.start.p0(i64 8, ptr %8) #10
  %14 = load ptr, ptr %4, align 8
  %15 = call ptr @psql_scan_slash_option(ptr noundef %14, i32 noundef 0, ptr noundef null, i1 noundef zeroext false)
  store ptr %15, ptr %8, align 8
  call void @llvm.lifetime.start.p0(i64 8, ptr %9) #10
  %16 = load ptr, ptr %4, align 8
  %17 = call ptr @psql_scan_slash_option(ptr noundef %16, i32 noundef 0, ptr noundef null, i1 noundef zeroext false)
  store ptr %17, ptr %9, align 8
  %18 = load ptr, ptr %8, align 8
  %19 = icmp ne ptr %18, null
  br i1 %19, label %22, label %20

20:                                               ; preds = %13
  %21 = load ptr, ptr %6, align 8
  call void (i32, i32, ptr, ...) @pg_log_generic(i32 noundef 4, i32 noundef 0, ptr noundef @.str.157, ptr noundef %21)
  store i8 0, ptr %7, align 1
  br label %40

22:                                               ; preds = %13
  %23 = load ptr, ptr %8, align 8
  %24 = call ptr @strchr(ptr noundef %23, i32 noundef 61) #11
  %25 = icmp ne ptr %24, null
  br i1 %25, label %26, label %28

26:                                               ; preds = %22
  %27 = load ptr, ptr %6, align 8
  call void (i32, i32, ptr, ...) @pg_log_generic(i32 noundef 4, i32 noundef 0, ptr noundef @.str.268, ptr noundef %27)
  store i8 0, ptr %7, align 1
  br label %39

28:                                               ; preds = %22
  %29 = load ptr, ptr %9, align 8
  %30 = icmp ne ptr %29, null
  br i1 %30, label %34, label %31

31:                                               ; preds = %28
  %32 = load ptr, ptr %8, align 8
  %33 = call i32 @unsetenv(ptr noundef %32) #10
  store i8 1, ptr %7, align 1
  br label %38

34:                                               ; preds = %28
  %35 = load ptr, ptr %8, align 8
  %36 = load ptr, ptr %9, align 8
  %37 = call i32 @setenv(ptr noundef %35, ptr noundef %36, i32 noundef 1) #10
  store i8 1, ptr %7, align 1
  br label %38

38:                                               ; preds = %34, %31
  br label %39

39:                                               ; preds = %38, %26
  br label %40

40:                                               ; preds = %39, %20
  %41 = load ptr, ptr %8, align 8
  call void @free(ptr noundef %41) #10
  %42 = load ptr, ptr %9, align 8
  call void @free(ptr noundef %42) #10
  call void @llvm.lifetime.end.p0(i64 8, ptr %9) #10
  call void @llvm.lifetime.end.p0(i64 8, ptr %8) #10
  br label %45

43:                                               ; preds = %3
  %44 = load ptr, ptr %4, align 8
  call void @ignore_slash_options(ptr noundef %44)
  br label %45

45:                                               ; preds = %43, %40
  %46 = load i8, ptr %7, align 1, !range !4, !noundef !5
  %47 = trunc i8 %46 to i1
  %48 = select i1 %47, i32 2, i32 5
  call void @llvm.lifetime.end.p0(i64 1, ptr %7) #10
  ret i32 %48
}