; Function Attrs: nounwind uwtable
define internal fastcc range(i32 2, 6) i32 @exec_command_setenv(ptr noundef %0, i1 noundef zeroext %1, ptr noundef %2) unnamed_addr #0 {
  %4 = tail call ptr @psql_scan_slash_option(ptr noundef %0, i32 noundef 0, ptr noundef null, i1 noundef zeroext false) #16
  br i1 %1, label %5, label %17

5:                                                ; preds = %3
  %6 = tail call ptr @psql_scan_slash_option(ptr noundef %0, i32 noundef 0, ptr noundef null, i1 noundef zeroext false) #16
  %.not = icmp eq ptr %4, null
  br i1 %.not, label %7, label %8

7:                                                ; preds = %5
  tail call void (i32, i32, ptr, ...) @pg_log_generic(i32 noundef 4, i32 noundef 0, ptr noundef nonnull @.str.157, ptr noundef %2) #16
  br label %16

8:                                                ; preds = %5
  %9 = tail call ptr @strchr(ptr noundef nonnull dereferenceable(1) %4, i32 noundef 61) #17
  %.not16 = icmp eq ptr %9, null
  br i1 %.not16, label %11, label %10

10:                                               ; preds = %8
  tail call void (i32, i32, ptr, ...) @pg_log_generic(i32 noundef 4, i32 noundef 0, ptr noundef nonnull @.str.268, ptr noundef %2) #16
  br label %16

11:                                               ; preds = %8
  %.not17 = icmp eq ptr %6, null
  br i1 %.not17, label %12, label %14

12:                                               ; preds = %11
  %13 = tail call i32 @unsetenv(ptr noundef nonnull %4) #16
  br label %16

14:                                               ; preds = %11
  %15 = tail call i32 @setenv(ptr noundef nonnull %4, ptr noundef nonnull %6, i32 noundef 1) #16
  br label %16

16:                                               ; preds = %10, %14, %12, %7
  %.0 = phi i32 [ 5, %10 ], [ 2, %14 ], [ 2, %12 ], [ 5, %7 ]
  tail call void @free(ptr noundef %4) #16
  tail call void @free(ptr noundef %6) #16
  br label %ignore_slash_options.exit

17:                                               ; preds = %3
  %.not2.i = icmp eq ptr %4, null
  br i1 %.not2.i, label %ignore_slash_options.exit, label %.lr.ph.i

.lr.ph.i:                                         ; preds = %17, %.lr.ph.i
  %18 = phi ptr [ %19, %.lr.ph.i ], [ %4, %17 ]
  tail call void @free(ptr noundef nonnull %18) #16
  %19 = tail call ptr @psql_scan_slash_option(ptr noundef %0, i32 noundef 0, ptr noundef null, i1 noundef zeroext false) #16
  %.not.i = icmp eq ptr %19, null
  br i1 %.not.i, label %ignore_slash_options.exit, label %.lr.ph.i, !llvm.loop !10

ignore_slash_options.exit:                        ; preds = %.lr.ph.i, %17, %16
  %.1 = phi i32 [ %.0, %16 ], [ 2, %17 ], [ 2, %.lr.ph.i ]
  ret i32 %.1
}